target datalayout = "e-m:e-p270:32:32-p271:32:32-p272:64:64-i64:64-i128:128-f80:128-n8:16:32:64-S128"
target triple = "x86_64-pc-linux-gnu"

%"class.icu_77::UnicodeString" = type { %"class.icu_77::Replaceable", %"union.icu_77::UnicodeString::StackBufferOrFields" }
%"class.icu_77::Replaceable" = type { %"class.icu_77::UObject" }
%"class.icu_77::UObject" = type { ptr }
%"union.icu_77::UnicodeString::StackBufferOrFields" = type { %struct.anon.0, [32 x i8] }
%struct.anon.0 = type { i16, i32, i32, ptr }
%"class.icu_77::DateIntervalFormat" = type <{ %"class.icu_77::Format", ptr, ptr, ptr, ptr, %"class.icu_77::Locale", %"class.icu_77::UnicodeString", [9 x %"struct.icu_77::DateIntervalFormat::PatternInfo"], ptr, ptr, ptr, i32, [4 x i8] }>
%"class.icu_77::Format" = type { %"class.icu_77::UObject", ptr, ptr }
%"class.icu_77::Locale" = type <{ %"class.icu_77::UObject", [12 x i8], [6 x i8], [4 x i8], [2 x i8], i32, [4 x i8], ptr, [157 x i8], [3 x i8], ptr, i8, [7 x i8] }>
%"struct.icu_77::DateIntervalFormat::PatternInfo" = type <{ %"class.icu_77::UnicodeString", %"class.icu_77::UnicodeString", i8, [7 x i8] }>
%"class.icu_77::DateInterval" = type { %"class.icu_77::UObject", double, double }

; Function Attrs: inlinehint mustprogress nounwind uwtable
define linkonce_odr noundef double @_ZNK6icu_7712DateInterval9getToDateEv(ptr noundef nonnull align 8 dereferenceable(24) %0) #2 comdat align 2 {
  %2 = alloca ptr, align 8
  store ptr %0, ptr %2, align 8, !tbaa !89
  %3 = load ptr, ptr %2, align 8
  %4 = getelementptr inbounds nuw %"class.icu_77::DateInterval", ptr %3, i32 0, i32 2
  %5 = load double, ptr %4, align 8, !tbaa !116
  ret double %5
}

; Function Attrs: inlinehint mustprogress uwtable
define linkonce_odr void @_ZN6icu_778Calendar7setTimeEdR10UErrorCode(ptr noundef nonnull align 8 dereferenceable(192) %0, double noundef %1, ptr noundef nonnull align 4 dereferenceable(4) %2) #3 comdat align 2 {
  %4 = alloca ptr, align 8
  %5 = alloca double, align 8
  %6 = alloca ptr, align 8
  store ptr %0, ptr %4, align 8, !tbaa !109
  store double %1, ptr %5, align 8, !tbaa !112
  store ptr %2, ptr %6, align 8, !tbaa !22
  %7 = load ptr, ptr %4, align 8
  %8 = load double, ptr %5, align 8, !tbaa !112
  %9 = load ptr, ptr %6, align 8, !tbaa !22
  call void @_ZN6icu_778Calendar15setTimeInMillisEdR10UErrorCode(ptr noundef nonnull align 8 dereferenceable(192) %7, double noundef %8, ptr noundef nonnull align 4 dereferenceable(4) %9)
  ret void
}

; Function Attrs: inlinehint mustprogress nounwind uwtable
define linkonce_odr noundef double @_ZNK6icu_7712DateInterval11getFromDateEv(ptr noundef nonnull align 8 dereferenceable(24) %0) #2 comdat align 2 {
  %2 = alloca ptr, align 8
  store ptr %0, ptr %2, align 8, !tbaa !89
  %3 = load ptr, ptr %2, align 8
  %4 = getelementptr inbounds nuw %"class.icu_77::DateInterval", ptr %3, i32 0, i32 1
  %5 = load double, ptr %4, align 8, !tbaa !114
  ret double %5
}

; Function Attrs: inlinehint mustprogress nounwind uwtable
define internal noundef signext i8 @_ZL9U_FAILURE10UErrorCode(i32 noundef %0) #2 {
  %2 = alloca i32, align 4
  store i32 %0, ptr %2, align 4, !tbaa !15
  %3 = load i32, ptr %2, align 4, !tbaa !15
  %4 = icmp sgt i32 %3, 0
  %5 = zext i1 %4 to i8
  ret i8 %5
}

; Function Attrs: mustprogress uwtable
define noundef nonnull align 8 dereferenceable(64) ptr @_ZNK6icu_7718DateIntervalFormat18formatIntervalImplERKNS_12DateIntervalERNS_13UnicodeStringERaRNS_20FieldPositionHandlerER10UErrorCode(ptr noundef nonnull align 8 dereferenceable(1596) %0, ptr noundef nonnull align 8 dereferenceable(24) %1, ptr noundef nonnull align 8 dereferenceable(64) %2, ptr noundef nonnull align 1 dereferenceable(1) %3, ptr noundef nonnull align 8 dereferenceable(12) %4, ptr noundef nonnull align 4 dereferenceable(4) %5) #1 align 2 {
  %7 = alloca ptr, align 8
  %8 = alloca ptr, align 8
  %9 = alloca ptr, align 8
  %10 = alloca ptr, align 8
  %11 = alloca ptr, align 8
  %12 = alloca ptr, align 8
  %13 = alloca ptr, align 8
  store ptr %0, ptr %8, align 8, !tbaa !39
  store ptr %1, ptr %9, align 8, !tbaa !89
  store ptr %2, ptr %10, align 8, !tbaa !41
  store ptr %3, ptr %11, align 8, !tbaa !17
  store ptr %4, ptr %12, align 8, !tbaa !91
  store ptr %5, ptr %13, align 8, !tbaa !22
  %14 = load ptr, ptr %8, align 8
  %15 = load ptr, ptr %13, align 8, !tbaa !22
  %16 = load i32, ptr %15, align 4, !tbaa !15
  %17 = call noundef signext i8 @_ZL9U_FAILURE10UErrorCode(i32 noundef %16)
  %18 = icmp ne i8 %17, 0
  br i1 %18, label %19, label %21

19:                                               ; preds = %6
  %20 = load ptr, ptr %10, align 8, !tbaa !41
  store ptr %20, ptr %7, align 8
  br label %52

21:                                               ; preds = %6
  %22 = getelementptr inbounds nuw %"class.icu_77::DateIntervalFormat", ptr %14, i32 0, i32 3
  %23 = load ptr, ptr %22, align 8, !tbaa !59
  %24 = icmp eq ptr %23, null
  br i1 %24, label %29, label %25

25:                                               ; preds = %21
  %26 = getelementptr inbounds nuw %"class.icu_77::DateIntervalFormat", ptr %14, i32 0, i32 4
  %27 = load ptr, ptr %26, align 8, !tbaa !60
  %28 = icmp eq ptr %27, null
  br i1 %28, label %29, label %32

29:                                               ; preds = %25, %21
  %30 = load ptr, ptr %13, align 8, !tbaa !22
  store i32 27, ptr %30, align 4, !tbaa !15
  %31 = load ptr, ptr %10, align 8, !tbaa !41
  store ptr %31, ptr %7, align 8
  br label %52

32:                                               ; preds = %25
  %33 = getelementptr inbounds nuw %"class.icu_77::DateIntervalFormat", ptr %14, i32 0, i32 3
  %34 = load ptr, ptr %33, align 8, !tbaa !59
  %35 = load ptr, ptr %9, align 8, !tbaa !89
  %36 = call noundef double @_ZNK6icu_7712DateInterval11getFromDateEv(ptr noundef nonnull align 8 dereferenceable(24) %35)
  %37 = load ptr, ptr %13, align 8, !tbaa !22
  call void @_ZN6icu_778Calendar7setTimeEdR10UErrorCode(ptr noundef nonnull align 8 dereferenceable(192) %34, double noundef %36, ptr noundef nonnull align 4 dereferenceable(4) %37)
  %38 = getelementptr inbounds nuw %"class.icu_77::DateIntervalFormat", ptr %14, i32 0, i32 4
  %39 = load ptr, ptr %38, align 8, !tbaa !60
  %40 = load ptr, ptr %9, align 8, !tbaa !89
  %41 = call noundef double @_ZNK6icu_7712DateInterval9getToDateEv(ptr noundef nonnull align 8 dereferenceable(24) %40)
  %42 = load ptr, ptr %13, align 8, !tbaa !22
  call void @_ZN6icu_778Calendar7setTimeEdR10UErrorCode(ptr noundef nonnull align 8 dereferenceable(192) %39, double noundef %41, ptr noundef nonnull align 4 dereferenceable(4) %42)
  %43 = getelementptr inbounds nuw %"class.icu_77::DateIntervalFormat", ptr %14, i32 0, i32 3
  %44 = load ptr, ptr %43, align 8, !tbaa !59
  %45 = getelementptr inbounds nuw %"class.icu_77::DateIntervalFormat", ptr %14, i32 0, i32 4
  %46 = load ptr, ptr %45, align 8, !tbaa !60
  %47 = load ptr, ptr %10, align 8, !tbaa !41
  %48 = load ptr, ptr %11, align 8, !tbaa !17
  %49 = load ptr, ptr %12, align 8, !tbaa !91
  %50 = load ptr, ptr %13, align 8, !tbaa !22
  %51 = call noundef nonnull align 8 dereferenceable(64) ptr @_ZNK6icu_7718DateIntervalFormat10formatImplERNS_8CalendarES2_RNS_13UnicodeStringERaRNS_20FieldPositionHandlerER10UErrorCode(ptr noundef nonnull align 8 dereferenceable(1596) %14, ptr noundef nonnull align 8 dereferenceable(192) %44, ptr noundef nonnull align 8 dereferenceable(192) %46, ptr noundef nonnull align 8 dereferenceable(64) %47, ptr noundef nonnull align 1 dereferenceable(1) %48, ptr noundef nonnull align 8 dereferenceable(12) %49, ptr noundef nonnull align 4 dereferenceable(4) %50)
  store ptr %51, ptr %7, align 8
  br label %52

52:                                               ; preds = %32, %29, %19
  %53 = load ptr, ptr %7, align 8
  ret ptr %53
}