; Function Attrs: mustprogress uwtable
define noundef nonnull align 8 dereferenceable(64) ptr @_ZNK6icu_7718DateIntervalFormat18formatIntervalImplERKNS_12DateIntervalERNS_13UnicodeStringERaRNS_20FieldPositionHandlerER10UErrorCode(ptr noundef nonnull align 8 dereferenceable(1596) %0, ptr noundef nonnull readonly align 8 captures(none) dereferenceable(24) %1, ptr noundef nonnull align 8 dereferenceable(64) %2, ptr noundef nonnull writeonly align 1 captures(none) dereferenceable(1) %3, ptr noundef nonnull align 8 dereferenceable(12) %4, ptr noundef nonnull align 4 dereferenceable(4) %5) local_unnamed_addr #1 align 2 {
  %7 = load i32, ptr %5, align 4, !tbaa !13
  %8 = icmp slt i32 %7, 1
  br i1 %8, label %9, label %27

9:                                                ; preds = %6
  %10 = getelementptr inbounds nuw i8, ptr %0, i64 40
  %11 = load ptr, ptr %10, align 8, !tbaa !50
  %12 = icmp eq ptr %11, null
  br i1 %12, label %17, label %13

13:                                               ; preds = %9
  %14 = getelementptr inbounds nuw i8, ptr %0, i64 48
  %15 = load ptr, ptr %14, align 8, !tbaa !51
  %16 = icmp eq ptr %15, null
  br i1 %16, label %17, label %18

17:                                               ; preds = %13, %9
  store i32 27, ptr %5, align 4, !tbaa !13
  br label %27

18:                                               ; preds = %13
  %19 = getelementptr inbounds nuw i8, ptr %1, i64 8
  %20 = load double, ptr %19, align 8, !tbaa !62
  tail call void @_ZN6icu_778Calendar15setTimeInMillisEdR10UErrorCode(ptr noundef nonnull align 8 dereferenceable(192) %11, double noundef %20, ptr noundef nonnull align 4 dereferenceable(4) %5)
  %21 = load ptr, ptr %14, align 8, !tbaa !51
  %22 = getelementptr inbounds nuw i8, ptr %1, i64 16
  %23 = load double, ptr %22, align 8, !tbaa !65
  tail call void @_ZN6icu_778Calendar15setTimeInMillisEdR10UErrorCode(ptr noundef nonnull align 8 dereferenceable(192) %21, double noundef %23, ptr noundef nonnull align 4 dereferenceable(4) %5)
  %24 = load ptr, ptr %10, align 8, !tbaa !50
  %25 = load ptr, ptr %14, align 8, !tbaa !51
  %26 = tail call noundef nonnull align 8 dereferenceable(64) ptr @_ZNK6icu_7718DateIntervalFormat10formatImplERNS_8CalendarES2_RNS_13UnicodeStringERaRNS_20FieldPositionHandlerER10UErrorCode(ptr noundef nonnull align 8 dereferenceable(1596) %0, ptr noundef nonnull align 8 dereferenceable(192) %24, ptr noundef nonnull align 8 dereferenceable(192) %25, ptr noundef nonnull align 8 dereferenceable(64) %2, ptr noundef nonnull align 1 dereferenceable(1) %3, ptr noundef nonnull align 8 dereferenceable(12) %4, ptr noundef nonnull align 4 dereferenceable(4) %5)
  br label %27

27:                                               ; preds = %6, %18, %17
  %.0 = phi ptr [ %2, %17 ], [ %26, %18 ], [ %2, %6 ]
  ret ptr %.0
}